Certificate:
    Data:
        Version: 3 (0x2)
        Serial Number: 3 (0x3)
    Signature Algorithm: sha256WithRSAEncryption
        Issuer: C=AU, ST=Western Australia, L=Perth, O=Moodle Pty Ltd, OU=Moodle LMS, CN=Testing CA/emailAddress=moodle@example.com
        Validity
            Not Before: Feb 20 13:21:53 2023 GMT
            Not After : Feb 20 13:21:53 2024 GMT
        Subject: C=AU, ST=Western Australia, L=Perth, O=Moodle Pty Ltd, OU=Moodle LMS, CN=moodlenet_mock
        Subject Public Key Info:
            Public Key Algorithm: rsaEncryption
                RSA Public-Key: (2048 bit)
                Modulus:
                    00:cc:35:33:20:ae:a5:52:3a:05:33:46:8f:73:e1:
                    92:80:77:44:56:ff:6e:7e:e6:9f:63:43:93:16:ea:
                    29:cd:6f:7e:cf:e8:af:4f:65:96:5e:e2:20:a7:d7:
                    21:c3:13:b0:f4:7a:0a:99:8a:64:60:89:f5:46:32:
                    10:9a:54:c1:c2:7e:e8:d5:90:ae:76:a3:45:d3:e3:
                    21:0d:1e:cd:1f:fc:59:52:92:68:82:2e:bf:91:db:
                    fb:91:3f:b6:7e:cc:5b:3c:47:95:16:c6:ad:16:1a:
                    85:72:fa:fb:39:44:35:13:72:6c:a4:db:b2:1d:19:
                    7c:51:1b:f1:2a:21:42:ee:92:94:ac:f2:7e:84:68:
                    43:0e:31:8a:47:29:67:73:3d:40:49:10:dc:b7:00:
                    dd:d1:a0:9d:97:dd:95:6c:1e:4f:2c:b2:bf:5c:1b:
                    41:0c:e2:fc:78:34:03:8b:7e:81:cf:90:9a:80:87:
                    05:e7:83:bb:c6:eb:19:65:5c:1b:95:4e:5c:ab:ce:
                    14:79:c4:f8:b5:4b:9f:3f:bd:f0:71:7b:a3:34:0e:
                    1e:95:aa:8a:cf:3d:76:04:77:be:9b:2a:fc:b6:2d:
                    46:9f:e5:15:de:b1:87:67:a1:f3:9a:3d:fb:9c:b8:
                    ef:1a:ee:43:ff:a5:b4:fd:68:c5:80:d7:20:6f:ba:
                    40:3f
                Exponent: 65537 (0x10001)
        X509v3 extensions:
            X509v3 Subject Key Identifier: 
                44:64:6B:82:BF:C3:B1:2E:32:55:29:3C:89:A2:3A:BF:74:4B:39:3E
            X509v3 Authority Key Identifier: 
                keyid:BC:EC:27:CE:84:2D:E9:3E:AB:26:62:A8:56:26:50:C3:AF:44:9D:01

            X509v3 Basic Constraints: 
                CA:FALSE
            X509v3 Key Usage: 
                Digital Signature, Key Encipherment
            X509v3 Subject Alternative Name: 
                DNS:moodlenet_mock, DNS:moodlenet_mock.docker.internal, DNS:localhost
    Signature Algorithm: sha256WithRSAEncryption
         72:1e:e0:fb:a0:1d:58:79:24:51:61:5d:5b:74:fc:d4:da:d0:
         30:3e:59:56:21:97:e6:9a:dc:f0:73:b0:73:d2:d8:7e:dd:98:
         9c:0b:12:6c:df:fd:59:8f:0a:6d:cf:81:a7:c9:6d:ae:23:99:
         51:a7:0e:bf:70:0c:fa:f1:83:f9:c1:6c:69:ce:4b:f2:2f:1e:
         2b:d4:cf:a0:19:be:89:26:70:f0:98:1b:73:97:7d:29:69:64:
         b6:7d:c4:fa:f6:93:21:9b:d9:e8:03:4f:9b:da:3a:a2:1f:a2:
         01:bd:9f:8b:27:1e:92:1d:fe:93:af:7c:19:c9:61:51:7d:33:
         b8:09:6a:e6:44:a2:8e:42:2c:da:a5:94:15:73:ab:45:26:9d:
         ef:df:93:c0:42:0d:51:aa:ce:2b:7a:d3:2b:32:0f:3c:68:a3:
         23:6c:f3:f6:81:8b:57:14:57:0e:1f:34:b2:4d:6a:b9:a4:03:
         d1:04:08:70:d9:4c:f2:26:dc:4e:77:f2:87:72:1b:ea:89:b9:
         25:9e:17:77:3b:fc:27:55:2a:15:e6:3f:14:22:bc:bc:90:90:
         a6:aa:b2:f2:6a:48:be:f2:94:b7:6e:1b:3e:9d:71:6e:b5:ee:
         a8:fe:77:a3:c5:8a:19:7b:47:94:e2:99:2a:e9:2b:10:58:18:
         fd:2d:48:a0:96:3e:09:d6:26:76:48:55:b9:c7:3c:6b:23:21:
         26:31:b7:ea:f0:15:81:85:ef:f4:63:46:97:ba:87:91:59:09:
         dc:1a:b4:e8:e7:d7:08:38:38:a1:3d:1d:2c:2f:4a:de:5b:fa:
         d2:25:c2:d3:cb:09:34:9b:7c:5b:df:f6:1c:88:d8:8d:f1:07:
         0e:01:b8:2b:2d:d5:04:eb:fb:50:f8:d5:71:1c:54:a7:33:6b:
         64:14:da:96:93:18:5b:08:70:87:41:e1:fd:a0:6a:68:d7:ee:
         df:12:27:cd:a3:ca:db:57:17:d5:ba:92:4b:8f:ca:f1:0d:7d:
         13:1d:a9:57:3e:24:ee:cb:ed:08:05:45:cb:0e:03:be:45:e0:
         1e:eb:35:a8:a6:3c:77:9b:0f:39:1c:31:57:0a:4a:19:0f:c8:
         39:05:e1:16:fe:61:da:91:74:d9:f4:ab:f4:08:70:fe:78:30:
         6d:18:06:93:87:14:51:6c:68:6b:da:e3:9b:96:85:9c:ce:c4:
         e3:e5:e7:55:6e:f0:d2:93:55:97:ac:f4:01:c5:09:89:41:39:
         e4:92:61:1b:ad:d3:5b:71:99:7d:ec:33:6a:9d:03:b4:48:21:
         11:79:b5:42:d6:32:bc:4d:95:df:84:4f:58:6a:6f:b1:98:7e:
         fb:df:c8:47:47:e0:7b:d2
-----BEGIN CERTIFICATE-----
MIIFPjCCAyagAwIBAgIBAzANBgkqhkiG9w0BAQsFADCBnzELMAkGA1UEBhMCQVUx
GjAYBgNVBAgMEVdlc3Rlcm4gQXVzdHJhbGlhMQ4wDAYDVQQHDAVQZXJ0aDEXMBUG
A1UECgwOTW9vZGxlIFB0eSBMdGQxEzARBgNVBAsMCk1vb2RsZSBMTVMxEzARBgNV
BAMMClRlc3RpbmcgQ0ExITAfBgkqhkiG9w0BCQEWEm1vb2RsZUBleGFtcGxlLmNv
bTAeFw0yMzAyMjAxMzIxNTNaFw0yNDAyMjAxMzIxNTNaMIGAMQswCQYDVQQGEwJB
VTEaMBgGA1UECAwRV2VzdGVybiBBdXN0cmFsaWExDjAMBgNVBAcMBVBlcnRoMRcw
FQYDVQQKDA5Nb29kbGUgUHR5IEx0ZDETMBEGA1UECwwKTW9vZGxlIExNUzEXMBUG
A1UEAwwObW9vZGxlbmV0X21vY2swggEiMA0GCSqGSIb3DQEBAQUAA4IBDwAwggEK
AoIBAQDMNTMgrqVSOgUzRo9z4ZKAd0RW/25+5p9jQ5MW6inNb37P6K9PZZZe4iCn
1yHDE7D0egqZimRgifVGMhCaVMHCfujVkK52o0XT4yENHs0f/FlSkmiCLr+R2/uR
P7Z+zFs8R5UWxq0WGoVy+vs5RDUTcmyk27IdGXxRG/EqIULukpSs8n6EaEMOMYpH
KWdzPUBJENy3AN3RoJ2X3ZVsHk8ssr9cG0EM4vx4NAOLfoHPkJqAhwXng7vG6xll
XBuVTlyrzhR5xPi1S58/vfBxe6M0Dh6VqorPPXYEd76bKvy2LUaf5RXesYdnofOa
PfucuO8a7kP/pbT9aMWA1yBvukA/AgMBAAGjgaEwgZ4wHQYDVR0OBBYEFERka4K/
w7EuMlUpPImiOr90Szk+MB8GA1UdIwQYMBaAFLzsJ86ELek+qyZiqFYmUMOvRJ0B
MAkGA1UdEwQCMAAwCwYDVR0PBAQDAgWgMEQGA1UdEQQ9MDuCDm1vb2RsZW5ldF9t
b2Nrgh5tb29kbGVuZXRfbW9jay5kb2NrZXIuaW50ZXJuYWyCCWxvY2FsaG9zdDAN
BgkqhkiG9w0BAQsFAAOCAgEAch7g+6AdWHkkUWFdW3T81NrQMD5ZViGX5prc8HOw
c9LYft2YnAsSbN/9WY8Kbc+Bp8ltriOZUacOv3AM+vGD+cFsac5L8i8eK9TPoBm+
iSZw8Jgbc5d9KWlktn3E+vaTIZvZ6ANPm9o6oh+iAb2fiycekh3+k698GclhUX0z
uAlq5kSijkIs2qWUFXOrRSad79+TwEINUarOK3rTKzIPPGijI2zz9oGLVxRXDh80
sk1quaQD0QQIcNlM8ibcTnfyh3Ib6om5JZ4Xdzv8J1UqFeY/FCK8vJCQpqqy8mpI
vvKUt24bPp1xbrXuqP53o8WKGXtHlOKZKukrEFgY/S1IoJY+CdYmdkhVucc8ayMh
JjG36vAVgYXv9GNGl7qHkVkJ3Bq06OfXCDg4oT0dLC9K3lv60iXC08sJNJt8W9/2
HIjYjfEHDgG4Ky3VBOv7UPjVcRxUpzNrZBTalpMYWwhwh0Hh/aBqaNfu3xInzaPK
21cX1bqSS4/K8Q19Ex2pVz4k7svtCAVFyw4DvkXgHus1qKY8d5sPORwxVwpKGQ/I
OQXhFv5h2pF02fSr9Ahw/ngwbRgGk4cUUWxoa9rjm5aFnM7E4+XnVW7w0pNVl6z0
AcUJiUE55JJhG63TW3GZfewzap0DtEghEXm1QtYyvE2V34RPWGpvsZh++9/IR0fg
e9I=
-----END CERTIFICATE-----
